; ModuleID = '11/801.c'
source_filename = "11/801.c"
target datalayout = "e-m:e-p270:32:32-p271:32:32-p272:64:64-i64:64-f80:128-n8:16:32:64-S128"
target triple = "x86_64-pc-linux-gnu"

@.str = private unnamed_addr constant [9 x i8] c"%d %d %d\00", align 1
@__const.main.a = private unnamed_addr constant [12 x i32] [i32 31, i32 29, i32 31, i32 30, i32 31, i32 30, i32 31, i32 31, i32 30, i32 31, i32 30, i32 31], align 16
@__const.main.a.1 = private unnamed_addr constant [12 x i32] [i32 31, i32 28, i32 31, i32 30, i32 31, i32 30, i32 31, i32 31, i32 30, i32 31, i32 30, i32 31], align 16
@.str.2 = private unnamed_addr constant [3 x i8] c"%d\00", align 1

; Function Attrs: noinline nounwind uwtable
define dso_local i32 @f(i32 %0) #0 {
  %2 = alloca i32, align 4
  %3 = alloca i32, align 4
  store i32 %0, i32* %2, align 4
  %4 = load i32, i32* %2, align 4
  %5 = srem i32 %4, 4
  %6 = icmp eq i32 %5, 0
  br i1 %6, label %7, label %11

7:                                                ; preds = %1
  %8 = load i32, i32* %2, align 4
  %9 = srem i32 %8, 100
  %10 = icmp ne i32 %9, 0
  br i1 %10, label %15, label %11

11:                                               ; preds = %7, %1
  %12 = load i32, i32* %2, align 4
  %13 = srem i32 %12, 400
  %14 = icmp eq i32 %13, 0
  br i1 %14, label %15, label %16

15:                                               ; preds = %11, %7
  store i32 1, i32* %3, align 4
  br label %17

16:                                               ; preds = %11
  store i32 0, i32* %3, align 4
  br label %17

17:                                               ; preds = %16, %15
  %18 = load i32, i32* %3, align 4
  ret i32 %18
}

; Function Attrs: noinline nounwind uwtable
define dso_local i32 @main() #0 {
  %1 = alloca i32, align 4
  %2 = alloca i32, align 4
  %3 = alloca i32, align 4
  %4 = alloca i32, align 4
  %5 = alloca i32, align 4
  %6 = alloca i32, align 4
  %7 = alloca i32, align 4
  %8 = alloca [12 x i32], align 16
  %9 = alloca [12 x i32], align 16
  %10 = alloca [12 x i32], align 16
  %11 = alloca [12 x i32], align 16
  store i32 0, i32* %1, align 4
  store i32 0, i32* %6, align 4
  store i32 0, i32* %7, align 4
  %12 = call i32 (i8*, ...) @__isoc99_scanf(i8* getelementptr inbounds ([9 x i8], [9 x i8]* @.str, i64 0, i64 0), i32* %2, i32* %3, i32* %4)
  %13 = load i32, i32* %2, align 4
  %14 = call i32 @f(i32 %13)
  store i32 %14, i32* %5, align 4
  %15 = load i32, i32* %5, align 4
  %16 = icmp eq i32 %15, 1
  br i1 %16, label %17, label %35

17:                                               ; preds = %0
  %18 = bitcast [12 x i32]* %10 to i8*
  call void @llvm.memcpy.p0i8.p0i8.i64(i8* align 16 %18, i8* align 16 bitcast ([12 x i32]* @__const.main.a to i8*), i64 48, i1 false)
  store i32 0, i32* %6, align 4
  br label %19

19:                                               ; preds = %31, %17
  %20 = load i32, i32* %6, align 4
  %21 = load i32, i32* %3, align 4
  %22 = sub nsw i32 %21, 1
  %23 = icmp slt i32 %20, %22
  br i1 %23, label %24, label %34

24:                                               ; preds = %19
  %25 = load i32, i32* %7, align 4
  %26 = load i32, i32* %6, align 4
  %27 = sext i32 %26 to i64
  %28 = getelementptr inbounds [12 x i32], [12 x i32]* %10, i64 0, i64 %27
  %29 = load i32, i32* %28, align 4
  %30 = add nsw i32 %25, %29
  store i32 %30, i32* %7, align 4
  br label %31

31:                                               ; preds = %24
  %32 = load i32, i32* %6, align 4
  %33 = add nsw i32 %32, 1
  store i32 %33, i32* %6, align 4
  br label %19

34:                                               ; preds = %19
  br label %53

35:                                               ; preds = %0
  %36 = bitcast [12 x i32]* %11 to i8*
  call void @llvm.memcpy.p0i8.p0i8.i64(i8* align 16 %36, i8* align 16 bitcast ([12 x i32]* @__const.main.a.1 to i8*), i64 48, i1 false)
  store i32 0, i32* %6, align 4
  br label %37

37:                                               ; preds = %49, %35
  %38 = load i32, i32* %6, align 4
  %39 = load i32, i32* %3, align 4
  %40 = sub nsw i32 %39, 1
  %41 = icmp slt i32 %38, %40
  br i1 %41, label %42, label %52

42:                                               ; preds = %37
  %43 = load i32, i32* %7, align 4
  %44 = load i32, i32* %6, align 4
  %45 = sext i32 %44 to i64
  %46 = getelementptr inbounds [12 x i32], [12 x i32]* %11, i64 0, i64 %45
  %47 = load i32, i32* %46, align 4
  %48 = add nsw i32 %43, %47
  store i32 %48, i32* %7, align 4
  br label %49

49:                                               ; preds = %42
  %50 = load i32, i32* %6, align 4
  %51 = add nsw i32 %50, 1
  store i32 %51, i32* %6, align 4
  br label %37

52:                                               ; preds = %37
  br label %53

53:                                               ; preds = %52, %34
  %54 = load i32, i32* %7, align 4
  %55 = load i32, i32* %4, align 4
  %56 = add nsw i32 %54, %55
  store i32 %56, i32* %7, align 4
  %57 = load i32, i32* %7, align 4
  %58 = call i32 (i8*, ...) @printf(i8* getelementptr inbounds ([3 x i8], [3 x i8]* @.str.2, i64 0, i64 0), i32 %57)
  %59 = call i32 @getchar()
  %60 = call i32 @getchar()
  ret i32 0
}

declare dso_local i32 @__isoc99_scanf(i8*, ...) #1

; Function Attrs: argmemonly nounwind willreturn
declare void @llvm.memcpy.p0i8.p0i8.i64(i8* noalias nocapture writeonly, i8* noalias nocapture readonly, i64, i1 immarg) #2

declare dso_local i32 @printf(i8*, ...) #1

declare dso_local i32 @getchar() #1


!llvm.module.flags = !{!0}
!llvm.ident = !{!1}

!0 = !{i32 1, !"wchar_size", i32 4}
!1 = !{!"clang version 10.0.0-4ubuntu1 "}
