; ModuleID = 'source-C-CXX/10/801.c'
source_filename = "source-C-CXX/10/801.c"
target datalayout = "e-m:e-p270:32:32-p271:32:32-p272:64:64-i64:64-f80:128-n8:16:32:64-S128"
target triple = "x86_64-pc-linux-gnu"

%struct._IO_FILE = type { i32, i8*, i8*, i8*, i8*, i8*, i8*, i8*, i8*, i8*, i8*, i8*, %struct._IO_marker*, %struct._IO_FILE*, i32, i32, i64, i16, i8, [1 x i8], i8*, i64, %struct._IO_codecvt*, %struct._IO_wide_data*, %struct._IO_FILE*, i8*, i64, i32, [20 x i8] }
%struct._IO_marker = type opaque
%struct._IO_codecvt = type opaque
%struct._IO_wide_data = type opaque

@.str = private unnamed_addr constant [9 x i8] c"%d %d %d\00", align 1
@__const.main.a = private unnamed_addr constant [12 x i32] [i32 31, i32 29, i32 31, i32 30, i32 31, i32 30, i32 31, i32 31, i32 30, i32 31, i32 30, i32 31], align 16
@__const.main.a.1 = private unnamed_addr constant [12 x i32] [i32 31, i32 28, i32 31, i32 30, i32 31, i32 30, i32 31, i32 31, i32 30, i32 31, i32 30, i32 31], align 16
@.str.2 = private unnamed_addr constant [3 x i8] c"%d\00", align 1
@stdin = external local_unnamed_addr global %struct._IO_FILE*, align 8

; Function Attrs: mustprogress nofree norecurse nosync nounwind readnone sspstrong uwtable willreturn
define dso_local i32 @f(i32 %0) local_unnamed_addr #0 {
  %2 = and i32 %0, 3
  %3 = icmp eq i32 %2, 0
  %4 = srem i32 %0, 100
  %5 = icmp ne i32 %4, 0
  %6 = and i1 %3, %5
  %7 = srem i32 %0, 400
  %8 = icmp eq i32 %7, 0
  %9 = select i1 %6, i1 true, i1 %8
  %10 = zext i1 %9 to i32
  ret i32 %10
}

; Function Attrs: argmemonly mustprogress nofree nosync nounwind willreturn
declare void @llvm.lifetime.start.p0i8(i64 immarg, i8* nocapture) #1

; Function Attrs: argmemonly mustprogress nofree nosync nounwind willreturn
declare void @llvm.lifetime.end.p0i8(i64 immarg, i8* nocapture) #1

; Function Attrs: nofree nounwind sspstrong uwtable
define dso_local i32 @main() local_unnamed_addr #2 {
  %1 = alloca i32, align 4
  %2 = alloca i32, align 4
  %3 = alloca i32, align 4
  %4 = bitcast i32* %1 to i8*
  call void @llvm.lifetime.start.p0i8(i64 4, i8* nonnull %4) #5
  %5 = bitcast i32* %2 to i8*
  call void @llvm.lifetime.start.p0i8(i64 4, i8* nonnull %5) #5
  %6 = bitcast i32* %3 to i8*
  call void @llvm.lifetime.start.p0i8(i64 4, i8* nonnull %6) #5
  %7 = call i32 (i8*, ...) @__isoc99_scanf(i8* getelementptr inbounds ([9 x i8], [9 x i8]* @.str, i64 0, i64 0), i32* nonnull %1, i32* nonnull %2, i32* nonnull %3)
  %8 = load i32, i32* %1, align 4, !tbaa !5
  %9 = and i32 %8, 3
  %10 = icmp eq i32 %9, 0
  %11 = srem i32 %8, 100
  %12 = icmp ne i32 %11, 0
  %13 = and i1 %10, %12
  %14 = srem i32 %8, 400
  %15 = icmp eq i32 %14, 0
  %16 = select i1 %13, i1 true, i1 %15
  %17 = load i32, i32* %2, align 4, !tbaa !5
  %18 = icmp sgt i32 %17, 1
  br i1 %16, label %108, label %19

19:                                               ; preds = %0
  br i1 %18, label %20, label %213

20:                                               ; preds = %19
  %21 = add nsw i32 %17, -1
  %22 = zext i32 %21 to i64
  %23 = icmp ult i32 %21, 8
  br i1 %23, label %105, label %24

24:                                               ; preds = %20
  %25 = and i64 %22, 4294967288
  %26 = add nsw i64 %25, -8
  %27 = lshr exact i64 %26, 3
  %28 = add nuw nsw i64 %27, 1
  %29 = and i64 %28, 3
  %30 = icmp ult i64 %26, 24
  br i1 %30, label %76, label %31

31:                                               ; preds = %24
  %32 = and i64 %28, 4611686018427387900
  br label %33

33:                                               ; preds = %33, %31
  %34 = phi i64 [ 0, %31 ], [ %73, %33 ]
  %35 = phi <4 x i32> [ zeroinitializer, %31 ], [ %71, %33 ]
  %36 = phi <4 x i32> [ zeroinitializer, %31 ], [ %72, %33 ]
  %37 = phi i64 [ %32, %31 ], [ %74, %33 ]
  %38 = getelementptr inbounds [12 x i32], [12 x i32]* @__const.main.a.1, i64 0, i64 %34
  %39 = bitcast i32* %38 to <4 x i32>*
  %40 = load <4 x i32>, <4 x i32>* %39, align 16, !tbaa !5
  %41 = getelementptr inbounds i32, i32* %38, i64 4
  %42 = bitcast i32* %41 to <4 x i32>*
  %43 = load <4 x i32>, <4 x i32>* %42, align 16, !tbaa !5
  %44 = add <4 x i32> %40, %35
  %45 = add <4 x i32> %43, %36
  %46 = or i64 %34, 8
  %47 = getelementptr inbounds [12 x i32], [12 x i32]* @__const.main.a.1, i64 0, i64 %46
  %48 = bitcast i32* %47 to <4 x i32>*
  %49 = load <4 x i32>, <4 x i32>* %48, align 16, !tbaa !5
  %50 = getelementptr inbounds i32, i32* %47, i64 4
  %51 = bitcast i32* %50 to <4 x i32>*
  %52 = load <4 x i32>, <4 x i32>* %51, align 16, !tbaa !5
  %53 = add <4 x i32> %49, %44
  %54 = add <4 x i32> %52, %45
  %55 = or i64 %34, 16
  %56 = getelementptr inbounds [12 x i32], [12 x i32]* @__const.main.a.1, i64 0, i64 %55
  %57 = bitcast i32* %56 to <4 x i32>*
  %58 = load <4 x i32>, <4 x i32>* %57, align 16, !tbaa !5
  %59 = getelementptr inbounds i32, i32* %56, i64 4
  %60 = bitcast i32* %59 to <4 x i32>*
  %61 = load <4 x i32>, <4 x i32>* %60, align 16, !tbaa !5
  %62 = add <4 x i32> %58, %53
  %63 = add <4 x i32> %61, %54
  %64 = or i64 %34, 24
  %65 = getelementptr inbounds [12 x i32], [12 x i32]* @__const.main.a.1, i64 0, i64 %64
  %66 = bitcast i32* %65 to <4 x i32>*
  %67 = load <4 x i32>, <4 x i32>* %66, align 16, !tbaa !5
  %68 = getelementptr inbounds i32, i32* %65, i64 4
  %69 = bitcast i32* %68 to <4 x i32>*
  %70 = load <4 x i32>, <4 x i32>* %69, align 16, !tbaa !5
  %71 = add <4 x i32> %67, %62
  %72 = add <4 x i32> %70, %63
  %73 = add nuw i64 %34, 32
  %74 = add i64 %37, -4
  %75 = icmp eq i64 %74, 0
  br i1 %75, label %76, label %33, !llvm.loop !9

76:                                               ; preds = %33, %24
  %77 = phi <4 x i32> [ undef, %24 ], [ %71, %33 ]
  %78 = phi <4 x i32> [ undef, %24 ], [ %72, %33 ]
  %79 = phi i64 [ 0, %24 ], [ %73, %33 ]
  %80 = phi <4 x i32> [ zeroinitializer, %24 ], [ %71, %33 ]
  %81 = phi <4 x i32> [ zeroinitializer, %24 ], [ %72, %33 ]
  %82 = icmp eq i64 %29, 0
  br i1 %82, label %99, label %83

83:                                               ; preds = %76, %83
  %84 = phi i64 [ %96, %83 ], [ %79, %76 ]
  %85 = phi <4 x i32> [ %94, %83 ], [ %80, %76 ]
  %86 = phi <4 x i32> [ %95, %83 ], [ %81, %76 ]
  %87 = phi i64 [ %97, %83 ], [ %29, %76 ]
  %88 = getelementptr inbounds [12 x i32], [12 x i32]* @__const.main.a.1, i64 0, i64 %84
  %89 = bitcast i32* %88 to <4 x i32>*
  %90 = load <4 x i32>, <4 x i32>* %89, align 16, !tbaa !5
  %91 = getelementptr inbounds i32, i32* %88, i64 4
  %92 = bitcast i32* %91 to <4 x i32>*
  %93 = load <4 x i32>, <4 x i32>* %92, align 16, !tbaa !5
  %94 = add <4 x i32> %90, %85
  %95 = add <4 x i32> %93, %86
  %96 = add nuw i64 %84, 8
  %97 = add i64 %87, -1
  %98 = icmp eq i64 %97, 0
  br i1 %98, label %99, label %83, !llvm.loop !12

99:                                               ; preds = %83, %76
  %100 = phi <4 x i32> [ %77, %76 ], [ %94, %83 ]
  %101 = phi <4 x i32> [ %78, %76 ], [ %95, %83 ]
  %102 = add <4 x i32> %101, %100
  %103 = call i32 @llvm.vector.reduce.add.v4i32(<4 x i32> %102)
  %104 = icmp eq i64 %25, %22
  br i1 %104, label %213, label %105

105:                                              ; preds = %20, %99
  %106 = phi i64 [ 0, %20 ], [ %25, %99 ]
  %107 = phi i32 [ 0, %20 ], [ %103, %99 ]
  br label %205

108:                                              ; preds = %0
  br i1 %18, label %109, label %213

109:                                              ; preds = %108
  %110 = add nsw i32 %17, -1
  %111 = zext i32 %110 to i64
  %112 = icmp ult i32 %110, 8
  br i1 %112, label %194, label %113

113:                                              ; preds = %109
  %114 = and i64 %111, 4294967288
  %115 = add nsw i64 %114, -8
  %116 = lshr exact i64 %115, 3
  %117 = add nuw nsw i64 %116, 1
  %118 = and i64 %117, 3
  %119 = icmp ult i64 %115, 24
  br i1 %119, label %165, label %120

120:                                              ; preds = %113
  %121 = and i64 %117, 4611686018427387900
  br label %122

122:                                              ; preds = %122, %120
  %123 = phi i64 [ 0, %120 ], [ %162, %122 ]
  %124 = phi <4 x i32> [ zeroinitializer, %120 ], [ %160, %122 ]
  %125 = phi <4 x i32> [ zeroinitializer, %120 ], [ %161, %122 ]
  %126 = phi i64 [ %121, %120 ], [ %163, %122 ]
  %127 = getelementptr inbounds [12 x i32], [12 x i32]* @__const.main.a, i64 0, i64 %123
  %128 = bitcast i32* %127 to <4 x i32>*
  %129 = load <4 x i32>, <4 x i32>* %128, align 16, !tbaa !5
  %130 = getelementptr inbounds i32, i32* %127, i64 4
  %131 = bitcast i32* %130 to <4 x i32>*
  %132 = load <4 x i32>, <4 x i32>* %131, align 16, !tbaa !5
  %133 = add <4 x i32> %129, %124
  %134 = add <4 x i32> %132, %125
  %135 = or i64 %123, 8
  %136 = getelementptr inbounds [12 x i32], [12 x i32]* @__const.main.a, i64 0, i64 %135
  %137 = bitcast i32* %136 to <4 x i32>*
  %138 = load <4 x i32>, <4 x i32>* %137, align 16, !tbaa !5
  %139 = getelementptr inbounds i32, i32* %136, i64 4
  %140 = bitcast i32* %139 to <4 x i32>*
  %141 = load <4 x i32>, <4 x i32>* %140, align 16, !tbaa !5
  %142 = add <4 x i32> %138, %133
  %143 = add <4 x i32> %141, %134
  %144 = or i64 %123, 16
  %145 = getelementptr inbounds [12 x i32], [12 x i32]* @__const.main.a, i64 0, i64 %144
  %146 = bitcast i32* %145 to <4 x i32>*
  %147 = load <4 x i32>, <4 x i32>* %146, align 16, !tbaa !5
  %148 = getelementptr inbounds i32, i32* %145, i64 4
  %149 = bitcast i32* %148 to <4 x i32>*
  %150 = load <4 x i32>, <4 x i32>* %149, align 16, !tbaa !5
  %151 = add <4 x i32> %147, %142
  %152 = add <4 x i32> %150, %143
  %153 = or i64 %123, 24
  %154 = getelementptr inbounds [12 x i32], [12 x i32]* @__const.main.a, i64 0, i64 %153
  %155 = bitcast i32* %154 to <4 x i32>*
  %156 = load <4 x i32>, <4 x i32>* %155, align 16, !tbaa !5
  %157 = getelementptr inbounds i32, i32* %154, i64 4
  %158 = bitcast i32* %157 to <4 x i32>*
  %159 = load <4 x i32>, <4 x i32>* %158, align 16, !tbaa !5
  %160 = add <4 x i32> %156, %151
  %161 = add <4 x i32> %159, %152
  %162 = add nuw i64 %123, 32
  %163 = add i64 %126, -4
  %164 = icmp eq i64 %163, 0
  br i1 %164, label %165, label %122, !llvm.loop !14

165:                                              ; preds = %122, %113
  %166 = phi <4 x i32> [ undef, %113 ], [ %160, %122 ]
  %167 = phi <4 x i32> [ undef, %113 ], [ %161, %122 ]
  %168 = phi i64 [ 0, %113 ], [ %162, %122 ]
  %169 = phi <4 x i32> [ zeroinitializer, %113 ], [ %160, %122 ]
  %170 = phi <4 x i32> [ zeroinitializer, %113 ], [ %161, %122 ]
  %171 = icmp eq i64 %118, 0
  br i1 %171, label %188, label %172

172:                                              ; preds = %165, %172
  %173 = phi i64 [ %185, %172 ], [ %168, %165 ]
  %174 = phi <4 x i32> [ %183, %172 ], [ %169, %165 ]
  %175 = phi <4 x i32> [ %184, %172 ], [ %170, %165 ]
  %176 = phi i64 [ %186, %172 ], [ %118, %165 ]
  %177 = getelementptr inbounds [12 x i32], [12 x i32]* @__const.main.a, i64 0, i64 %173
  %178 = bitcast i32* %177 to <4 x i32>*
  %179 = load <4 x i32>, <4 x i32>* %178, align 16, !tbaa !5
  %180 = getelementptr inbounds i32, i32* %177, i64 4
  %181 = bitcast i32* %180 to <4 x i32>*
  %182 = load <4 x i32>, <4 x i32>* %181, align 16, !tbaa !5
  %183 = add <4 x i32> %179, %174
  %184 = add <4 x i32> %182, %175
  %185 = add nuw i64 %173, 8
  %186 = add i64 %176, -1
  %187 = icmp eq i64 %186, 0
  br i1 %187, label %188, label %172, !llvm.loop !15

188:                                              ; preds = %172, %165
  %189 = phi <4 x i32> [ %166, %165 ], [ %183, %172 ]
  %190 = phi <4 x i32> [ %167, %165 ], [ %184, %172 ]
  %191 = add <4 x i32> %190, %189
  %192 = call i32 @llvm.vector.reduce.add.v4i32(<4 x i32> %191)
  %193 = icmp eq i64 %114, %111
  br i1 %193, label %213, label %194

194:                                              ; preds = %109, %188
  %195 = phi i64 [ 0, %109 ], [ %114, %188 ]
  %196 = phi i32 [ 0, %109 ], [ %192, %188 ]
  br label %197

197:                                              ; preds = %194, %197
  %198 = phi i64 [ %203, %197 ], [ %195, %194 ]
  %199 = phi i32 [ %202, %197 ], [ %196, %194 ]
  %200 = getelementptr inbounds [12 x i32], [12 x i32]* @__const.main.a, i64 0, i64 %198
  %201 = load i32, i32* %200, align 4, !tbaa !5
  %202 = add nsw i32 %201, %199
  %203 = add nuw nsw i64 %198, 1
  %204 = icmp eq i64 %203, %111
  br i1 %204, label %213, label %197, !llvm.loop !16

205:                                              ; preds = %105, %205
  %206 = phi i64 [ %211, %205 ], [ %106, %105 ]
  %207 = phi i32 [ %210, %205 ], [ %107, %105 ]
  %208 = getelementptr inbounds [12 x i32], [12 x i32]* @__const.main.a.1, i64 0, i64 %206
  %209 = load i32, i32* %208, align 4, !tbaa !5
  %210 = add nsw i32 %209, %207
  %211 = add nuw nsw i64 %206, 1
  %212 = icmp eq i64 %211, %22
  br i1 %212, label %213, label %205, !llvm.loop !18

213:                                              ; preds = %205, %197, %99, %188, %19, %108
  %214 = phi i32 [ 0, %108 ], [ 0, %19 ], [ %192, %188 ], [ %103, %99 ], [ %202, %197 ], [ %210, %205 ]
  %215 = load i32, i32* %3, align 4, !tbaa !5
  %216 = add nsw i32 %215, %214
  %217 = call i32 (i8*, ...) @printf(i8* nonnull dereferenceable(1) getelementptr inbounds ([3 x i8], [3 x i8]* @.str.2, i64 0, i64 0), i32 %216)
  %218 = load %struct._IO_FILE*, %struct._IO_FILE** @stdin, align 8, !tbaa !19
  %219 = call i32 @getc(%struct._IO_FILE* %218) #5
  %220 = load %struct._IO_FILE*, %struct._IO_FILE** @stdin, align 8, !tbaa !19
  %221 = call i32 @getc(%struct._IO_FILE* %220) #5
  call void @llvm.lifetime.end.p0i8(i64 4, i8* nonnull %6) #5
  call void @llvm.lifetime.end.p0i8(i64 4, i8* nonnull %5) #5
  call void @llvm.lifetime.end.p0i8(i64 4, i8* nonnull %4) #5
  ret i32 0
}

; Function Attrs: nofree nounwind
declare noundef i32 @__isoc99_scanf(i8* nocapture noundef readonly, ...) local_unnamed_addr #3

; Function Attrs: nofree nounwind
declare noundef i32 @printf(i8* nocapture noundef readonly, ...) local_unnamed_addr #3

; Function Attrs: nofree nounwind
declare noundef i32 @getc(%struct._IO_FILE* nocapture noundef) local_unnamed_addr #3

; Function Attrs: nofree nosync nounwind readnone willreturn
declare i32 @llvm.vector.reduce.add.v4i32(<4 x i32>) #4


!llvm.module.flags = !{!0, !1, !2, !3}
!llvm.ident = !{!4}

!0 = !{i32 1, !"wchar_size", i32 4}
!1 = !{i32 7, !"PIC Level", i32 2}
!2 = !{i32 7, !"PIE Level", i32 2}
!3 = !{i32 7, !"uwtable", i32 1}
!4 = !{!"clang version 13.0.0"}
!5 = !{!6, !6, i64 0}
!6 = !{!"int", !7, i64 0}
!7 = !{!"omnipotent char", !8, i64 0}
!8 = !{!"Simple C/C++ TBAA"}
!9 = distinct !{!9, !10, !11}
!10 = !{!"llvm.loop.mustprogress"}
!11 = !{!"llvm.loop.isvectorized", i32 1}
!12 = distinct !{!12, !13}
!13 = !{!"llvm.loop.unroll.disable"}
!14 = distinct !{!14, !10, !11}
!15 = distinct !{!15, !13}
!16 = distinct !{!16, !10, !17, !11}
!17 = !{!"llvm.loop.unroll.runtime.disable"}
!18 = distinct !{!18, !10, !17, !11}
!19 = !{!20, !20, i64 0}
!20 = !{!"any pointer", !7, i64 0}
